
test.elf:     file format elf64-littleriscv


Disassembly of section .boot:

0000000080000000 <_start>:
    80000000:	0500006f          	j	80000050 <start>

0000000080000004 <trap_handler>:
    80000004:	340c1073          	csrw	mscratch,x24
    80000008:	00000c17          	auipc	x24,0x0
    8000000c:	108c0c13          	addi	x24,x24,264 # 80000110 <reg_save>
    80000010:	019c3023          	sd	x25,0(x24)
    80000014:	02000c37          	lui	x24,0x2000
    80000018:	000c3023          	sd	x0,0(x24) # 2000000 <clint_base>
    8000001c:	34202cf3          	csrr	x25,mcause
    80000020:	00000c17          	auipc	x24,0x0
    80000024:	0e8c0c13          	addi	x24,x24,232 # 80000108 <mcause_val>
    80000028:	019c3023          	sd	x25,0(x24)
    8000002c:	00000c17          	auipc	x24,0x0
    80000030:	0ecc0c13          	addi	x24,x24,236 # 80000118 <event>
    80000034:	00100c93          	li	x25,1
    80000038:	019c3023          	sd	x25,0(x24)
    8000003c:	00000c17          	auipc	x24,0x0
    80000040:	0d4c0c13          	addi	x24,x24,212 # 80000110 <reg_save>
    80000044:	000c3c83          	ld	x25,0(x24)
    80000048:	34002c73          	csrr	x24,mscratch
    8000004c:	30200073          	mret

Disassembly of section .text:

0000000080000050 <start>:
    80000050:	00100093          	li	x1,1
    80000054:	00200113          	li	x2,2
    80000058:	00300193          	li	x3,3
    8000005c:	f14028f3          	csrr	x17,mhartid
    80000060:	09101c63          	bne	x0,x17,800000f8 <fail>
    80000064:	fff6e837          	lui	x16,0xfff6e
    80000068:	5d58081b          	addiw	x16,x16,1493
    8000006c:	00c81813          	slli	x16,x16,0xc
    80000070:	c3b80813          	addi	x16,x16,-965 # fffffffffff6dc3b <_end+0xffffffff7ff6db0f>
    80000074:	00d81813          	slli	x16,x16,0xd
    80000078:	54380813          	addi	x16,x16,1347
    8000007c:	00c81813          	slli	x16,x16,0xc
    80000080:	21080813          	addi	x16,x16,528
    80000084:	34081073          	csrw	mscratch,x16
    80000088:	340028f3          	csrr	x17,mscratch
    8000008c:	07181663          	bne	x16,x17,800000f8 <fail>
    80000090:	00000817          	auipc	x16,0x0
    80000094:	f7480813          	addi	x16,x16,-140 # 80000004 <trap_handler>
    80000098:	30581073          	csrw	mtvec,x16
    8000009c:	30447073          	csrci	mie,8
    800000a0:	30047073          	csrci	mstatus,8
    800000a4:	00000a17          	auipc	x20,0x0
    800000a8:	074a0a13          	addi	x20,x20,116 # 80000118 <event>
    800000ac:	000a3023          	sd	x0,0(x20)
    800000b0:	02000a37          	lui	x20,0x2000
    800000b4:	00100a93          	li	x21,1
    800000b8:	015a3023          	sd	x21,0(x20) # 2000000 <clint_base>
    800000bc:	30446073          	csrsi	mie,8
    800000c0:	30046073          	csrsi	mstatus,8
    800000c4:	00000a17          	auipc	x20,0x0
    800000c8:	054a0a13          	addi	x20,x20,84 # 80000118 <event>

00000000800000cc <wait_ev>:
    800000cc:	000a3a83          	ld	x21,0(x20)
    800000d0:	fe0a8ee3          	beqz	x21,800000cc <wait_ev>
    800000d4:	00000a17          	auipc	x20,0x0
    800000d8:	034a0a13          	addi	x20,x20,52 # 80000108 <mcause_val>
    800000dc:	000a3a83          	ld	x21,0(x20)
    800000e0:	00100b13          	li	x22,1
    800000e4:	03fb1b13          	slli	x22,x22,0x3f
    800000e8:	003b0b13          	addi	x22,x22,3
    800000ec:	015b1663          	bne	x22,x21,800000f8 <fail>
    800000f0:	00000f93          	li	x31,0
    800000f4:	0080006f          	j	800000fc <_finish>

00000000800000f8 <fail>:
    800000f8:	00100f93          	li	x31,1

00000000800000fc <_finish>:
    800000fc:	00000c17          	auipc	x24,0x0
    80000100:	024c0c13          	addi	x24,x24,36 # 80000120 <tohost>
    80000104:	01fc2023          	sw	x31,0(x24)
